target datalayout = "e-m:e-p270:32:32-p271:32:32-p272:64:64-i64:64-i128:128-f80:128-n8:16:32:64-S128"
target triple = "x86_64-pc-linux-gnu"

%struct.timeval = type { i64, i64 }
%struct.settings = type { i64, i32, i32, i32, ptr, i32, i32, i32, ptr, ptr, i32, double, i32, i32, i32, i8, i32, i32, i8, i32, i32, i32, i32, i32, i32, i8, i8, i8, i8, i8, i8, i8, i32, i32, double, double, i32, i32, i8, i32, i8, i8, ptr, i32, i32, i32, i32, double, double, i32, i8, i32, i32, i32, i32, i32, i8, i8, i8, ptr, i32, i32, i32, i32, i32, i32, i32, i32, i32, i32, double, i8, i32, i32, ptr, i32 }
%struct.event = type { %struct.event_callback, %union.anon.1, i32, ptr, %union.anon.3, i16, i16, %struct.timeval }
%struct.event_callback = type { %struct.anon.0, i16, i8, i8, %union.anon, ptr }
%struct.anon.0 = type { ptr, ptr }
%union.anon = type { ptr }
%union.anon.1 = type { %struct.anon.2 }
%struct.anon.2 = type { ptr, ptr }
%union.anon.3 = type { %struct.anon.4 }
%struct.anon.4 = type { %struct.anon.5, %struct.timeval }
%struct.anon.5 = type { ptr, ptr }
%struct.conn = type { ptr, i32, i8, i8, i8, i8, i8, i8, i8, i8, ptr, i32, i32, i32, %struct.event, i16, i16, ptr, ptr, i32, i32, ptr, ptr, ptr, i32, ptr, i32, i32, i32, i32, i32, i32, i32, %struct.sockaddr_in6, i32, i8, %struct.anon.9, %union.protocol_binary_request_header, i64, i64, i16, i32, i32, ptr, ptr, ptr, ptr, ptr, ptr }
%struct.sockaddr_in6 = type { i16, i16, i32, %struct.in6_addr, i32 }
%struct.in6_addr = type { %union.anon.8 }
%union.anon.8 = type { [4 x i32] }
%struct.anon.9 = type { ptr, i64, i64 }
%union.protocol_binary_request_header = type { %struct.anon.10 }
%struct.anon.10 = type { i8, i8, i16, i8, i8, i16, i32, i32, i64 }
%struct._mc_resp = type { ptr, ptr, i32, i32, ptr, ptr, ptr, [4 x %struct.iovec], i32, i8, i8, i8, i8, i8, i16, i16, i16, %struct.sockaddr_in6, i32, [1024 x i8] }
%struct.iovec = type { ptr, i64 }

@settings = dso_local global %struct.settings zeroinitializer, align 8
@stderr = external global ptr, align 8
@.str.15 = private unnamed_addr constant [25 x i8] c"%d: going from %s to %s\0A\00", align 1
@.str.16 = private unnamed_addr constant [16 x i8] c">%d NOREPLY %s\0A\00", align 1
@.str.17 = private unnamed_addr constant [8 x i8] c">%d %s\0A\00", align 1
@.str.18 = private unnamed_addr constant [34 x i8] c"SERVER_ERROR output line too long\00", align 1
@.str.19 = private unnamed_addr constant [3 x i8] c"\0D\0A\00", align 1

; Function Attrs: nounwind uwtable
define internal ptr @state_text(i32 noundef %0) #0 {
  %2 = alloca i32, align 4
  %3 = alloca [15 x ptr], align 16
  store i32 %0, ptr %2, align 4, !tbaa !8
  call void @llvm.lifetime.start.p0(i64 120, ptr %3) #15
  call void @llvm.memcpy.p0.p0.i64(ptr align 16 %3, ptr align 16 @__const.state_text.statenames, i64 120, i1 false)
  %4 = load i32, ptr %2, align 4, !tbaa !8
  %5 = zext i32 %4 to i64
  %6 = getelementptr inbounds nuw [15 x ptr], ptr %3, i64 0, i64 %5
  %7 = load ptr, ptr %6, align 8, !tbaa !29
  call void @llvm.lifetime.end.p0(i64 120, ptr %3) #15
  ret ptr %7
}

; Function Attrs: nounwind uwtable
define dso_local void @resp_add_iov(ptr noundef %0, ptr noundef %1, i32 noundef %2) #0 {
  %4 = alloca ptr, align 8
  %5 = alloca ptr, align 8
  %6 = alloca i32, align 4
  %7 = alloca i32, align 4
  store ptr %0, ptr %4, align 8, !tbaa !132
  store ptr %1, ptr %5, align 8, !tbaa !68
  store i32 %2, ptr %6, align 4, !tbaa !8
  call void @llvm.lifetime.start.p0(i64 4, ptr %7) #15
  %8 = load ptr, ptr %4, align 8, !tbaa !132
  %9 = getelementptr inbounds nuw %struct._mc_resp, ptr %8, i32 0, i32 9
  %10 = load i8, ptr %9, align 4, !tbaa !148
  %11 = zext i8 %10 to i32
  store i32 %11, ptr %7, align 4, !tbaa !8
  %12 = load ptr, ptr %5, align 8, !tbaa !68
  %13 = load ptr, ptr %4, align 8, !tbaa !132
  %14 = getelementptr inbounds nuw %struct._mc_resp, ptr %13, i32 0, i32 7
  %15 = load i32, ptr %7, align 4, !tbaa !8
  %16 = sext i32 %15 to i64
  %17 = getelementptr inbounds [4 x %struct.iovec], ptr %14, i64 0, i64 %16
  %18 = getelementptr inbounds nuw %struct.iovec, ptr %17, i32 0, i32 0
  store ptr %12, ptr %18, align 8, !tbaa !152
  %19 = load i32, ptr %6, align 4, !tbaa !8
  %20 = sext i32 %19 to i64
  %21 = load ptr, ptr %4, align 8, !tbaa !132
  %22 = getelementptr inbounds nuw %struct._mc_resp, ptr %21, i32 0, i32 7
  %23 = load i32, ptr %7, align 4, !tbaa !8
  %24 = sext i32 %23 to i64
  %25 = getelementptr inbounds [4 x %struct.iovec], ptr %22, i64 0, i64 %24
  %26 = getelementptr inbounds nuw %struct.iovec, ptr %25, i32 0, i32 1
  store i64 %20, ptr %26, align 8, !tbaa !154
  %27 = load ptr, ptr %4, align 8, !tbaa !132
  %28 = getelementptr inbounds nuw %struct._mc_resp, ptr %27, i32 0, i32 9
  %29 = load i8, ptr %28, align 4, !tbaa !148
  %30 = add i8 %29, 1
  store i8 %30, ptr %28, align 4, !tbaa !148
  %31 = load i32, ptr %6, align 4, !tbaa !8
  %32 = load ptr, ptr %4, align 8, !tbaa !132
  %33 = getelementptr inbounds nuw %struct._mc_resp, ptr %32, i32 0, i32 3
  %34 = load i32, ptr %33, align 4, !tbaa !147
  %35 = add nsw i32 %34, %31
  store i32 %35, ptr %33, align 4, !tbaa !147
  call void @llvm.lifetime.end.p0(i64 4, ptr %7) #15
  ret void
}

; Function Attrs: nounwind uwtable
define dso_local void @conn_set_state(ptr noundef %0, i32 noundef %1) #0 {
  %3 = alloca ptr, align 8
  %4 = alloca i32, align 4
  store ptr %0, ptr %3, align 8, !tbaa !10
  store i32 %1, ptr %4, align 4, !tbaa !8
  %5 = load i32, ptr %4, align 4, !tbaa !8
  %6 = load ptr, ptr %3, align 8, !tbaa !10
  %7 = getelementptr inbounds nuw %struct.conn, ptr %6, i32 0, i32 11
  %8 = load i32, ptr %7, align 8, !tbaa !50
  %9 = icmp ne i32 %5, %8
  br i1 %9, label %10, label %36

10:                                               ; preds = %2
  %11 = load i32, ptr getelementptr inbounds nuw (%struct.settings, ptr @settings, i32 0, i32 5), align 8, !tbaa !51
  %12 = icmp sgt i32 %11, 2
  br i1 %12, label %13, label %25

13:                                               ; preds = %10
  %14 = load ptr, ptr @stderr, align 8, !tbaa !52
  %15 = load ptr, ptr %3, align 8, !tbaa !10
  %16 = getelementptr inbounds nuw %struct.conn, ptr %15, i32 0, i32 1
  %17 = load i32, ptr %16, align 8, !tbaa !54
  %18 = load ptr, ptr %3, align 8, !tbaa !10
  %19 = getelementptr inbounds nuw %struct.conn, ptr %18, i32 0, i32 11
  %20 = load i32, ptr %19, align 8, !tbaa !50
  %21 = call ptr @state_text(i32 noundef %20)
  %22 = load i32, ptr %4, align 4, !tbaa !8
  %23 = call ptr @state_text(i32 noundef %22)
  %24 = call i32 (ptr, ptr, ...) @fprintf(ptr noundef %14, ptr noundef @.str.15, i32 noundef %17, ptr noundef %21, ptr noundef %23) #15
  br label %25

25:                                               ; preds = %13, %10
  %26 = load i32, ptr %4, align 4, !tbaa !8
  %27 = icmp eq i32 %26, 5
  br i1 %27, label %31, label %28

28:                                               ; preds = %25
  %29 = load i32, ptr %4, align 4, !tbaa !8
  %30 = icmp eq i32 %29, 9
  br i1 %30, label %31, label %32

31:                                               ; preds = %28, %25
  br label %32

32:                                               ; preds = %31, %28
  %33 = load i32, ptr %4, align 4, !tbaa !8
  %34 = load ptr, ptr %3, align 8, !tbaa !10
  %35 = getelementptr inbounds nuw %struct.conn, ptr %34, i32 0, i32 11
  store i32 %33, ptr %35, align 8, !tbaa !50
  br label %36

36:                                               ; preds = %32, %2
  ret void
}

; Function Attrs: nounwind uwtable
define dso_local void @resp_reset(ptr noundef %0) #0 {
  %2 = alloca ptr, align 8
  store ptr %0, ptr %2, align 8, !tbaa !132
  %3 = load ptr, ptr %2, align 8, !tbaa !132
  %4 = getelementptr inbounds nuw %struct._mc_resp, ptr %3, i32 0, i32 6
  %5 = load ptr, ptr %4, align 8, !tbaa !139
  %6 = icmp ne ptr %5, null
  br i1 %6, label %7, label %13

7:                                                ; preds = %1
  %8 = load ptr, ptr %2, align 8, !tbaa !132
  %9 = getelementptr inbounds nuw %struct._mc_resp, ptr %8, i32 0, i32 6
  %10 = load ptr, ptr %9, align 8, !tbaa !139
  call void @item_remove(ptr noundef %10)
  %11 = load ptr, ptr %2, align 8, !tbaa !132
  %12 = getelementptr inbounds nuw %struct._mc_resp, ptr %11, i32 0, i32 6
  store ptr null, ptr %12, align 8, !tbaa !139
  br label %13

13:                                               ; preds = %7, %1
  %14 = load ptr, ptr %2, align 8, !tbaa !132
  %15 = getelementptr inbounds nuw %struct._mc_resp, ptr %14, i32 0, i32 4
  %16 = load ptr, ptr %15, align 8, !tbaa !140
  %17 = icmp ne ptr %16, null
  br i1 %17, label %18, label %24

18:                                               ; preds = %13
  %19 = load ptr, ptr %2, align 8, !tbaa !132
  %20 = getelementptr inbounds nuw %struct._mc_resp, ptr %19, i32 0, i32 4
  %21 = load ptr, ptr %20, align 8, !tbaa !140
  call void @free(ptr noundef %21) #15
  %22 = load ptr, ptr %2, align 8, !tbaa !132
  %23 = getelementptr inbounds nuw %struct._mc_resp, ptr %22, i32 0, i32 4
  store ptr null, ptr %23, align 8, !tbaa !140
  br label %24

24:                                               ; preds = %18, %13
  %25 = load ptr, ptr %2, align 8, !tbaa !132
  %26 = getelementptr inbounds nuw %struct._mc_resp, ptr %25, i32 0, i32 2
  store i32 0, ptr %26, align 8, !tbaa !146
  %27 = load ptr, ptr %2, align 8, !tbaa !132
  %28 = getelementptr inbounds nuw %struct._mc_resp, ptr %27, i32 0, i32 3
  store i32 0, ptr %28, align 4, !tbaa !147
  %29 = load ptr, ptr %2, align 8, !tbaa !132
  %30 = getelementptr inbounds nuw %struct._mc_resp, ptr %29, i32 0, i32 9
  store i8 0, ptr %30, align 4, !tbaa !148
  %31 = load ptr, ptr %2, align 8, !tbaa !132
  %32 = getelementptr inbounds nuw %struct._mc_resp, ptr %31, i32 0, i32 10
  store i8 0, ptr %32, align 1, !tbaa !149
  %33 = load ptr, ptr %2, align 8, !tbaa !132
  %34 = getelementptr inbounds nuw %struct._mc_resp, ptr %33, i32 0, i32 8
  store i32 0, ptr %34, align 8, !tbaa !150
  %35 = load ptr, ptr %2, align 8, !tbaa !132
  %36 = getelementptr inbounds nuw %struct._mc_resp, ptr %35, i32 0, i32 11
  store i8 0, ptr %36, align 2, !tbaa !151
  ret void
}

; Function Attrs: nounwind uwtable
define dso_local void @out_string(ptr noundef %0, ptr noundef %1) #0 {
  %3 = alloca ptr, align 8
  %4 = alloca ptr, align 8
  %5 = alloca i64, align 8
  %6 = alloca ptr, align 8
  %7 = alloca i32, align 4
  store ptr %0, ptr %3, align 8, !tbaa !10
  store ptr %1, ptr %4, align 8, !tbaa !29
  call void @llvm.lifetime.start.p0(i64 8, ptr %5) #15
  call void @llvm.lifetime.start.p0(i64 8, ptr %6) #15
  %8 = load ptr, ptr %3, align 8, !tbaa !10
  %9 = getelementptr inbounds nuw %struct.conn, ptr %8, i32 0, i32 21
  %10 = load ptr, ptr %9, align 8, !tbaa !136
  store ptr %10, ptr %6, align 8, !tbaa !132
  %11 = load ptr, ptr %6, align 8, !tbaa !132
  call void @resp_reset(ptr noundef %11)
  %12 = load ptr, ptr %3, align 8, !tbaa !10
  %13 = getelementptr inbounds nuw %struct.conn, ptr %12, i32 0, i32 35
  %14 = load i8, ptr %13, align 4, !tbaa !72, !range !59, !noundef !60
  %15 = trunc i8 %14 to i1
  br i1 %15, label %16, label %30

16:                                               ; preds = %2
  %17 = load ptr, ptr %6, align 8, !tbaa !132
  %18 = getelementptr inbounds nuw %struct._mc_resp, ptr %17, i32 0, i32 11
  store i8 1, ptr %18, align 2, !tbaa !151
  %19 = load i32, ptr getelementptr inbounds nuw (%struct.settings, ptr @settings, i32 0, i32 5), align 8, !tbaa !51
  %20 = icmp sgt i32 %19, 1
  br i1 %20, label %21, label %28

21:                                               ; preds = %16
  %22 = load ptr, ptr @stderr, align 8, !tbaa !52
  %23 = load ptr, ptr %3, align 8, !tbaa !10
  %24 = getelementptr inbounds nuw %struct.conn, ptr %23, i32 0, i32 1
  %25 = load i32, ptr %24, align 8, !tbaa !54
  %26 = load ptr, ptr %4, align 8, !tbaa !29
  %27 = call i32 (ptr, ptr, ...) @fprintf(ptr noundef %22, ptr noundef @.str.16, i32 noundef %25, ptr noundef %26) #15
  br label %28

28:                                               ; preds = %21, %16
  %29 = load ptr, ptr %3, align 8, !tbaa !10
  call void @conn_set_state(ptr noundef %29, i32 noundef 1)
  store i32 1, ptr %7, align 4
  br label %68

30:                                               ; preds = %2
  %31 = load i32, ptr getelementptr inbounds nuw (%struct.settings, ptr @settings, i32 0, i32 5), align 8, !tbaa !51
  %32 = icmp sgt i32 %31, 1
  br i1 %32, label %33, label %40

33:                                               ; preds = %30
  %34 = load ptr, ptr @stderr, align 8, !tbaa !52
  %35 = load ptr, ptr %3, align 8, !tbaa !10
  %36 = getelementptr inbounds nuw %struct.conn, ptr %35, i32 0, i32 1
  %37 = load i32, ptr %36, align 8, !tbaa !54
  %38 = load ptr, ptr %4, align 8, !tbaa !29
  %39 = call i32 (ptr, ptr, ...) @fprintf(ptr noundef %34, ptr noundef @.str.17, i32 noundef %37, ptr noundef %38) #15
  br label %40

40:                                               ; preds = %33, %30
  %41 = load ptr, ptr %4, align 8, !tbaa !29
  %42 = call i64 @strlen(ptr noundef %41) #18
  store i64 %42, ptr %5, align 8, !tbaa !4
  %43 = load i64, ptr %5, align 8, !tbaa !4
  %44 = add i64 %43, 2
  %45 = icmp ugt i64 %44, 1024
  br i1 %45, label %46, label %49

46:                                               ; preds = %40
  store ptr @.str.18, ptr %4, align 8, !tbaa !29
  %47 = load ptr, ptr %4, align 8, !tbaa !29
  %48 = call i64 @strlen(ptr noundef %47) #18
  store i64 %48, ptr %5, align 8, !tbaa !4
  br label %49

49:                                               ; preds = %46, %40
  %50 = load ptr, ptr %6, align 8, !tbaa !132
  %51 = getelementptr inbounds nuw %struct._mc_resp, ptr %50, i32 0, i32 19
  %52 = getelementptr inbounds [1024 x i8], ptr %51, i64 0, i64 0
  %53 = load ptr, ptr %4, align 8, !tbaa !29
  %54 = load i64, ptr %5, align 8, !tbaa !4
  call void @llvm.memcpy.p0.p0.i64(ptr align 8 %52, ptr align 1 %53, i64 %54, i1 false)
  %55 = load ptr, ptr %6, align 8, !tbaa !132
  %56 = getelementptr inbounds nuw %struct._mc_resp, ptr %55, i32 0, i32 19
  %57 = getelementptr inbounds [1024 x i8], ptr %56, i64 0, i64 0
  %58 = load i64, ptr %5, align 8, !tbaa !4
  %59 = getelementptr inbounds nuw i8, ptr %57, i64 %58
  call void @llvm.memcpy.p0.p0.i64(ptr align 1 %59, ptr align 1 @.str.19, i64 2, i1 false)
  %60 = load ptr, ptr %6, align 8, !tbaa !132
  %61 = load ptr, ptr %6, align 8, !tbaa !132
  %62 = getelementptr inbounds nuw %struct._mc_resp, ptr %61, i32 0, i32 19
  %63 = getelementptr inbounds [1024 x i8], ptr %62, i64 0, i64 0
  %64 = load i64, ptr %5, align 8, !tbaa !4
  %65 = add i64 %64, 2
  %66 = trunc i64 %65 to i32
  call void @resp_add_iov(ptr noundef %60, ptr noundef %63, i32 noundef %66)
  %67 = load ptr, ptr %3, align 8, !tbaa !10
  call void @conn_set_state(ptr noundef %67, i32 noundef 1)
  store i32 1, ptr %7, align 4
  br label %68

68:                                               ; preds = %49, %28
  call void @llvm.lifetime.end.p0(i64 8, ptr %6) #15
  call void @llvm.lifetime.end.p0(i64 8, ptr %5) #15
  ret void
}