; Function Attrs: nounwind uwtable
define dso_local void @out_string(ptr noundef captures(none) %0, ptr noundef %1) local_unnamed_addr #1 {
  %3 = getelementptr inbounds nuw i8, ptr %0, i64 208
  %4 = load ptr, ptr %3, align 8, !tbaa !118
  %5 = getelementptr inbounds nuw i8, ptr %4, i64 40
  %6 = load ptr, ptr %5, align 8, !tbaa !111
  %.not.i = icmp eq ptr %6, null
  br i1 %.not.i, label %8, label %7

7:                                                ; preds = %2
  tail call void @item_remove(ptr noundef nonnull %6) #34
  store ptr null, ptr %5, align 8, !tbaa !111
  br label %8

8:                                                ; preds = %7, %2
  %9 = getelementptr inbounds nuw i8, ptr %4, i64 24
  %10 = load ptr, ptr %9, align 8, !tbaa !112
  %.not13.i = icmp eq ptr %10, null
  br i1 %.not13.i, label %resp_reset.exit, label %11

11:                                               ; preds = %8
  tail call void @free(ptr noundef nonnull %10) #34
  store ptr null, ptr %9, align 8, !tbaa !112
  br label %resp_reset.exit

resp_reset.exit:                                  ; preds = %8, %11
  %12 = getelementptr inbounds nuw i8, ptr %4, i64 16
  store i32 0, ptr %12, align 8, !tbaa !161
  %13 = getelementptr inbounds nuw i8, ptr %4, i64 20
  store i32 0, ptr %13, align 4, !tbaa !126
  %14 = getelementptr inbounds nuw i8, ptr %4, i64 112
  tail call void @llvm.memset.p0.i64(ptr noundef nonnull align 8 dereferenceable(7) %14, i8 0, i64 7, i1 false)
  %15 = getelementptr inbounds nuw i8, ptr %0, i64 308
  %16 = load i8, ptr %15, align 4, !tbaa !78, !range !60, !noundef !61
  %17 = trunc nuw i8 %16 to i1
  br i1 %17, label %18, label %42

18:                                               ; preds = %resp_reset.exit
  %19 = getelementptr inbounds nuw i8, ptr %4, i64 118
  store i8 1, ptr %19, align 2, !tbaa !107
  %20 = load i32, ptr getelementptr inbounds nuw (i8, ptr @settings, i64 32), align 8, !tbaa !49
  %21 = icmp sgt i32 %20, 1
  br i1 %21, label %22, label %27

22:                                               ; preds = %18
  %23 = load ptr, ptr @stderr, align 8, !tbaa !50
  %24 = getelementptr inbounds nuw i8, ptr %0, i64 8
  %25 = load i32, ptr %24, align 8, !tbaa !52
  %26 = tail call i32 (ptr, ptr, ...) @fprintf(ptr noundef %23, ptr noundef nonnull @.str.16, i32 noundef %25, ptr noundef %1) #36
  br label %27

27:                                               ; preds = %22, %18
  %28 = getelementptr inbounds nuw i8, ptr %0, i64 32
  %29 = load i32, ptr %28, align 8, !tbaa !48
  %.not.i22 = icmp eq i32 %29, 1
  br i1 %.not.i22, label %conn_set_state.exit, label %30

30:                                               ; preds = %27
  %31 = load i32, ptr getelementptr inbounds nuw (i8, ptr @settings, i64 32), align 8, !tbaa !49
  %32 = icmp sgt i32 %31, 2
  br i1 %32, label %33, label %41

33:                                               ; preds = %30
  %34 = load ptr, ptr @stderr, align 8, !tbaa !50
  %35 = getelementptr inbounds nuw i8, ptr %0, i64 8
  %36 = load i32, ptr %35, align 8, !tbaa !52
  %37 = zext i32 %29 to i64
  %38 = getelementptr inbounds nuw [15 x ptr], ptr @__const.state_text.statenames, i64 0, i64 %37
  %39 = load ptr, ptr %38, align 8, !tbaa !55
  %40 = tail call i32 (ptr, ptr, ...) @fprintf(ptr noundef %34, ptr noundef nonnull @.str.15, i32 noundef %36, ptr noundef %39, ptr noundef nonnull @.str.368) #36
  br label %41

41:                                               ; preds = %33, %30
  store i32 1, ptr %28, align 8, !tbaa !48
  br label %conn_set_state.exit

42:                                               ; preds = %resp_reset.exit
  %43 = load i32, ptr getelementptr inbounds nuw (i8, ptr @settings, i64 32), align 8, !tbaa !49
  %44 = icmp sgt i32 %43, 1
  br i1 %44, label %45, label %50

45:                                               ; preds = %42
  %46 = load ptr, ptr @stderr, align 8, !tbaa !50
  %47 = getelementptr inbounds nuw i8, ptr %0, i64 8
  %48 = load i32, ptr %47, align 8, !tbaa !52
  %49 = tail call i32 (ptr, ptr, ...) @fprintf(ptr noundef %46, ptr noundef nonnull @.str.17, i32 noundef %48, ptr noundef %1) #36
  %.phi.trans.insert = getelementptr inbounds nuw i8, ptr %4, i64 116
  %.pre = load i8, ptr %.phi.trans.insert, align 4, !tbaa !162
  %.pre25 = load i32, ptr %13, align 4, !tbaa !126
  br label %50

50:                                               ; preds = %45, %42
  %51 = phi i32 [ %.pre25, %45 ], [ 0, %42 ]
  %52 = phi i8 [ %.pre, %45 ], [ 0, %42 ]
  %53 = tail call i64 @strlen(ptr noundef nonnull dereferenceable(1) %1) #42
  %54 = add i64 %53, -1023
  %55 = icmp ult i64 %54, -1025
  %spec.select = select i1 %55, i64 33, i64 %53
  %spec.select21 = select i1 %55, ptr @.str.18, ptr %1
  %56 = getelementptr inbounds nuw i8, ptr %4, i64 160
  tail call void @llvm.memcpy.p0.p0.i64(ptr nonnull align 8 %56, ptr nonnull align 1 %spec.select21, i64 %spec.select, i1 false)
  %57 = getelementptr inbounds nuw i8, ptr %56, i64 %spec.select
  store i16 2573, ptr %57, align 1
  %58 = trunc i64 %spec.select to i32
  %59 = add i32 %58, 2
  %60 = getelementptr inbounds nuw i8, ptr %4, i64 116
  %61 = getelementptr inbounds nuw i8, ptr %4, i64 48
  %62 = zext i8 %52 to i64
  %63 = getelementptr inbounds nuw [4 x %struct.iovec], ptr %61, i64 0, i64 %62
  store ptr %56, ptr %63, align 8, !tbaa !122
  %64 = sext i32 %59 to i64
  %65 = getelementptr inbounds nuw i8, ptr %63, i64 8
  store i64 %64, ptr %65, align 8, !tbaa !124
  %66 = add i8 %52, 1
  store i8 %66, ptr %60, align 4, !tbaa !162
  %67 = add nsw i32 %51, %59
  store i32 %67, ptr %13, align 4, !tbaa !126
  %68 = getelementptr inbounds nuw i8, ptr %0, i64 32
  %69 = load i32, ptr %68, align 8, !tbaa !48
  %.not.i23 = icmp eq i32 %69, 1
  br i1 %.not.i23, label %conn_set_state.exit, label %70

70:                                               ; preds = %50
  %71 = load i32, ptr getelementptr inbounds nuw (i8, ptr @settings, i64 32), align 8, !tbaa !49
  %72 = icmp sgt i32 %71, 2
  br i1 %72, label %73, label %81

73:                                               ; preds = %70
  %74 = load ptr, ptr @stderr, align 8, !tbaa !50
  %75 = getelementptr inbounds nuw i8, ptr %0, i64 8
  %76 = load i32, ptr %75, align 8, !tbaa !52
  %77 = zext i32 %69 to i64
  %78 = getelementptr inbounds nuw [15 x ptr], ptr @__const.state_text.statenames, i64 0, i64 %77
  %79 = load ptr, ptr %78, align 8, !tbaa !55
  %80 = tail call i32 (ptr, ptr, ...) @fprintf(ptr noundef %74, ptr noundef nonnull @.str.15, i32 noundef %76, ptr noundef %79, ptr noundef nonnull @.str.368) #36
  br label %81

81:                                               ; preds = %73, %70
  store i32 1, ptr %68, align 8, !tbaa !48
  br label %conn_set_state.exit

conn_set_state.exit:                              ; preds = %81, %50, %41, %27
  ret void
}